target datalayout = "e-m:e-p270:32:32-p271:32:32-p272:64:64-i64:64-i128:128-f80:128-n8:16:32:64-S128"
target triple = "x86_64-pc-linux-gnu"

%struct.__storeu_si256 = type { <4 x i64> }

; Function Attrs: alwaysinline nounwind uwtable
define internal void @_mm256_storeu_si256(ptr noundef %0, <4 x i64> noundef %1) #3 {
  %3 = alloca ptr, align 8
  %4 = alloca <4 x i64>, align 32
  store ptr %0, ptr %3, align 8, !tbaa !3
  store <4 x i64> %1, ptr %4, align 32, !tbaa !23
  %5 = load <4 x i64>, ptr %4, align 32, !tbaa !23
  %6 = load ptr, ptr %3, align 8, !tbaa !3
  %7 = getelementptr inbounds nuw %struct.__storeu_si256, ptr %6, i32 0, i32 0
  store <4 x i64> %5, ptr %7, align 1, !tbaa !23
  ret void
}

; Function Attrs: nounwind uwtable
define hidden void @python_hashlib_Hacl_Hash_Blake2b_Simd256_finish(i32 noundef %0, ptr noundef %1, ptr noundef %2) #0 {
  %4 = alloca i32, align 4
  %5 = alloca ptr, align 8
  %6 = alloca ptr, align 8
  %7 = alloca [64 x i8], align 16
  %8 = alloca ptr, align 8
  %9 = alloca ptr, align 8
  %10 = alloca ptr, align 8
  %11 = alloca ptr, align 8
  %12 = alloca ptr, align 8
  store i32 %0, ptr %4, align 4, !tbaa !7
  store ptr %1, ptr %5, align 8, !tbaa !26
  store ptr %2, ptr %6, align 8, !tbaa !3
  call void @llvm.lifetime.start.p0(i64 64, ptr %7) #14
  call void @llvm.memset.p0.i64(ptr align 16 %7, i8 0, i64 64, i1 false)
  call void @llvm.lifetime.start.p0(i64 8, ptr %8) #14
  %13 = getelementptr inbounds [64 x i8], ptr %7, i64 0, i64 0
  store ptr %13, ptr %8, align 8, !tbaa !26
  call void @llvm.lifetime.start.p0(i64 8, ptr %9) #14
  %14 = getelementptr inbounds [64 x i8], ptr %7, i64 0, i64 0
  %15 = getelementptr i8, ptr %14, i64 32
  store ptr %15, ptr %9, align 8, !tbaa !26
  call void @llvm.lifetime.start.p0(i64 8, ptr %10) #14
  %16 = load ptr, ptr %6, align 8, !tbaa !3
  store ptr %16, ptr %10, align 8, !tbaa !3
  call void @llvm.lifetime.start.p0(i64 8, ptr %11) #14
  %17 = load ptr, ptr %6, align 8, !tbaa !3
  %18 = getelementptr <4 x i64>, ptr %17, i64 1
  store ptr %18, ptr %11, align 8, !tbaa !3
  %19 = load ptr, ptr %8, align 8, !tbaa !26
  %20 = load ptr, ptr %10, align 8, !tbaa !3
  %21 = getelementptr <4 x i64>, ptr %20, i64 0
  %22 = load <4 x i64>, ptr %21, align 32, !tbaa !23
  call void @_mm256_storeu_si256(ptr noundef %19, <4 x i64> noundef %22)
  %23 = load ptr, ptr %9, align 8, !tbaa !26
  %24 = load ptr, ptr %11, align 8, !tbaa !3
  %25 = getelementptr <4 x i64>, ptr %24, i64 0
  %26 = load <4 x i64>, ptr %25, align 32, !tbaa !23
  call void @_mm256_storeu_si256(ptr noundef %23, <4 x i64> noundef %26)
  call void @llvm.lifetime.start.p0(i64 8, ptr %12) #14
  %27 = getelementptr inbounds [64 x i8], ptr %7, i64 0, i64 0
  store ptr %27, ptr %12, align 8, !tbaa !26
  %28 = load ptr, ptr %5, align 8, !tbaa !26
  %29 = load ptr, ptr %12, align 8, !tbaa !26
  %30 = load i32, ptr %4, align 4, !tbaa !7
  %31 = zext i32 %30 to i64
  %32 = mul i64 %31, 1
  call void @llvm.memcpy.p0.p0.i64(ptr align 1 %28, ptr align 1 %29, i64 %32, i1 false)
  %33 = getelementptr inbounds [64 x i8], ptr %7, i64 0, i64 0
  call void @Lib_Memzero0_memzero0(ptr noundef %33, i64 noundef 64)
  call void @llvm.lifetime.end.p0(i64 8, ptr %12) #14
  call void @llvm.lifetime.end.p0(i64 8, ptr %11) #14
  call void @llvm.lifetime.end.p0(i64 8, ptr %10) #14
  call void @llvm.lifetime.end.p0(i64 8, ptr %9) #14
  call void @llvm.lifetime.end.p0(i64 8, ptr %8) #14
  call void @llvm.lifetime.end.p0(i64 64, ptr %7) #14
  ret void
}