; Function Attrs: nounwind uwtable
define hidden void @python_hashlib_Hacl_Hash_Blake2b_Simd256_finish(i32 noundef %0, ptr noundef writeonly captures(none) %1, ptr noundef readonly captures(none) %2) local_unnamed_addr #8 {
  %4 = alloca [64 x i8], align 16
  call void @llvm.lifetime.start.p0(i64 64, ptr nonnull %4) #26
  %5 = getelementptr inbounds nuw i8, ptr %4, i64 32
  %6 = getelementptr i8, ptr %2, i64 32
  %7 = load <4 x i64>, ptr %2, align 32, !tbaa !3
  store <4 x i64> %7, ptr %4, align 16, !tbaa !3
  %8 = load <4 x i64>, ptr %6, align 32, !tbaa !3
  store <4 x i64> %8, ptr %5, align 16, !tbaa !3
  %9 = zext i32 %0 to i64
  call void @llvm.memcpy.p0.p0.i64(ptr align 1 %1, ptr nonnull align 16 %4, i64 %9, i1 false)
  call void @Lib_Memzero0_memzero0(ptr noundef nonnull %4, i64 noundef 64) #26
  call void @llvm.lifetime.end.p0(i64 64, ptr nonnull %4) #26
  ret void
}